target datalayout = "e-m:e-p270:32:32-p271:32:32-p272:64:64-i64:64-i128:128-f80:128-n8:16:32:64-S128"
target triple = "x86_64-pc-linux-gnu"

%struct.H5_user_cb_state_t = type { %struct.H5E_user_cb_state_t }
%struct.H5E_user_cb_state_t = type { i32, %union.anon, ptr }
%union.anon = type { ptr }
%struct.H5P_iter_pclass_ud_t = type { ptr, ptr, ptr, i32 }

@H5P_init_g = external global i8, align 1
@H5_libterm_g = external global i8, align 1

; Function Attrs: nounwind uwtable
define internal i32 @H5P__iterate_pclass_cb(ptr noundef %0, ptr noundef %1, ptr noundef %2) #0 {
  %4 = alloca ptr, align 8
  %5 = alloca ptr, align 8
  %6 = alloca ptr, align 8
  %7 = alloca ptr, align 8
  %8 = alloca ptr, align 8
  %9 = alloca i32, align 4
  %10 = alloca %struct.H5_user_cb_state_t, align 8
  store ptr %0, ptr %4, align 8, !tbaa !40
  store ptr %1, ptr %5, align 8, !tbaa !40
  store ptr %2, ptr %6, align 8, !tbaa !40
  call void @llvm.lifetime.start.p0(i64 8, ptr %7) #8
  %11 = load ptr, ptr %4, align 8, !tbaa !40
  store ptr %11, ptr %7, align 8, !tbaa !68
  call void @llvm.lifetime.start.p0(i64 8, ptr %8) #8
  %12 = load ptr, ptr %6, align 8, !tbaa !40
  store ptr %12, ptr %8, align 8, !tbaa !40
  call void @llvm.lifetime.start.p0(i64 4, ptr %9) #8
  store i32 0, ptr %9, align 4, !tbaa !3
  %13 = load i8, ptr @H5P_init_g, align 1, !tbaa !7, !range !9, !noundef !10
  %14 = trunc i8 %13 to i1
  br i1 %14, label %19, label %15

15:                                               ; preds = %3
  %16 = load i8, ptr @H5_libterm_g, align 1, !tbaa !7, !range !9, !noundef !10
  %17 = trunc i8 %16 to i1
  %18 = xor i1 %17, true
  br label %19

19:                                               ; preds = %15, %3
  %20 = phi i1 [ true, %3 ], [ %18, %15 ]
  %21 = xor i1 %20, true
  %22 = xor i1 %21, true
  %23 = zext i1 %22 to i32
  %24 = sext i32 %23 to i64
  %25 = call i64 @llvm.expect.i64(i64 %24, i64 1)
  %26 = icmp ne i64 %25, 0
  br i1 %26, label %27, label %69

27:                                               ; preds = %19
  %28 = load ptr, ptr %8, align 8, !tbaa !40
  %29 = getelementptr inbounds nuw %struct.H5P_iter_pclass_ud_t, ptr %28, i32 0, i32 2
  %30 = load ptr, ptr %29, align 8, !tbaa !130
  %31 = load i32, ptr %30, align 4, !tbaa !3
  %32 = load ptr, ptr %8, align 8, !tbaa !40
  %33 = getelementptr inbounds nuw %struct.H5P_iter_pclass_ud_t, ptr %32, i32 0, i32 3
  %34 = load i32, ptr %33, align 8, !tbaa !131
  %35 = icmp sge i32 %31, %34
  br i1 %35, label %36, label %62

36:                                               ; preds = %27
  call void @llvm.lifetime.start.p0(i64 24, ptr %10) #8
  %37 = call i32 @H5_user_cb_prepare(ptr noundef %10)
  %38 = icmp slt i32 %37, 0
  br i1 %38, label %39, label %40

39:                                               ; preds = %36
  store i32 -1, ptr %9, align 4, !tbaa !3
  br label %53

40:                                               ; preds = %36
  %41 = load ptr, ptr %8, align 8, !tbaa !40
  %42 = getelementptr inbounds nuw %struct.H5P_iter_pclass_ud_t, ptr %41, i32 0, i32 0
  %43 = load ptr, ptr %42, align 8, !tbaa !127
  %44 = load ptr, ptr %7, align 8, !tbaa !68
  %45 = load ptr, ptr %8, align 8, !tbaa !40
  %46 = getelementptr inbounds nuw %struct.H5P_iter_pclass_ud_t, ptr %45, i32 0, i32 1
  %47 = load ptr, ptr %46, align 8, !tbaa !129
  %48 = call i32 %43(ptr noundef %44, ptr noundef %47)
  store i32 %48, ptr %9, align 4, !tbaa !3
  %49 = call i32 @H5_user_cb_restore(ptr noundef %10)
  %50 = icmp slt i32 %49, 0
  br i1 %50, label %51, label %52

51:                                               ; preds = %40
  store i32 -1, ptr %9, align 4, !tbaa !3
  br label %52

52:                                               ; preds = %51, %40
  br label %53

53:                                               ; preds = %52, %39
  call void @llvm.lifetime.end.p0(i64 24, ptr %10) #8
  %54 = load i32, ptr %9, align 4, !tbaa !3
  %55 = icmp ne i32 %54, 0
  br i1 %55, label %56, label %61

56:                                               ; preds = %53
  br label %57

57:                                               ; preds = %56
  %58 = load i32, ptr %9, align 4, !tbaa !3
  store i32 %58, ptr %9, align 4, !tbaa !3
  br label %68

59:                                               ; No predecessors!
  br label %60

60:                                               ; preds = %59
  br label %61

61:                                               ; preds = %60, %53
  br label %62

62:                                               ; preds = %61, %27
  %63 = load ptr, ptr %8, align 8, !tbaa !40
  %64 = getelementptr inbounds nuw %struct.H5P_iter_pclass_ud_t, ptr %63, i32 0, i32 2
  %65 = load ptr, ptr %64, align 8, !tbaa !130
  %66 = load i32, ptr %65, align 4, !tbaa !3
  %67 = add nsw i32 %66, 1
  store i32 %67, ptr %65, align 4, !tbaa !3
  br label %68

68:                                               ; preds = %62, %57
  br label %69

69:                                               ; preds = %68, %19
  %70 = load i32, ptr %9, align 4, !tbaa !3
  call void @llvm.lifetime.end.p0(i64 4, ptr %9) #8
  call void @llvm.lifetime.end.p0(i64 8, ptr %8) #8
  call void @llvm.lifetime.end.p0(i64 8, ptr %7) #8
  ret i32 %70
}