; Function Attrs: nounwind uwtable
define internal i32 @H5P__iterate_pclass_cb(ptr noundef %0, ptr readnone captures(none) %1, ptr noundef readonly captures(none) %2) #0 {
  %4 = alloca %struct.H5_user_cb_state_t, align 8
  %5 = load i8, ptr @H5P_init_g, align 1, !tbaa !3, !range !7, !noundef !8
  %6 = trunc nuw i8 %5 to i1
  %7 = load i8, ptr @H5_libterm_g, align 1, !range !7
  %8 = trunc nuw i8 %7 to i1
  %9 = xor i1 %8, true
  %10 = select i1 %6, i1 true, i1 %9
  br i1 %10, label %11, label %32, !prof !9

11:                                               ; preds = %3
  %12 = getelementptr inbounds nuw i8, ptr %2, i64 16
  %13 = load ptr, ptr %12, align 8, !tbaa !118
  %14 = load i32, ptr %13, align 4, !tbaa !45
  %15 = getelementptr inbounds nuw i8, ptr %2, i64 24
  %16 = load i32, ptr %15, align 8, !tbaa !119
  %.not = icmp slt i32 %14, %16
  br i1 %.not, label %28, label %17

17:                                               ; preds = %11
  call void @llvm.lifetime.start.p0(i64 24, ptr nonnull %4) #14
  %18 = call i32 @H5_user_cb_prepare(ptr noundef nonnull %4) #14
  %19 = icmp slt i32 %18, 0
  br i1 %19, label %.thread, label %20

20:                                               ; preds = %17
  %21 = load ptr, ptr %2, align 8, !tbaa !115
  %22 = getelementptr inbounds nuw i8, ptr %2, i64 8
  %23 = load ptr, ptr %22, align 8, !tbaa !117
  %24 = call i32 %21(ptr noundef %0, ptr noundef %23) #14
  %25 = call i32 @H5_user_cb_restore(ptr noundef nonnull %4) #14
  %26 = icmp slt i32 %25, 0
  br i1 %26, label %.thread, label %27

.thread:                                          ; preds = %17, %20
  call void @llvm.lifetime.end.p0(i64 24, ptr nonnull %4) #14
  br label %32

27:                                               ; preds = %20
  call void @llvm.lifetime.end.p0(i64 24, ptr nonnull %4) #14
  %.not10 = icmp eq i32 %24, 0
  br i1 %.not10, label %._crit_edge, label %32

._crit_edge:                                      ; preds = %27
  %.pre = load ptr, ptr %12, align 8, !tbaa !118
  %.pre13 = load i32, ptr %.pre, align 4, !tbaa !45
  br label %28

28:                                               ; preds = %._crit_edge, %11
  %29 = phi i32 [ %.pre13, %._crit_edge ], [ %14, %11 ]
  %30 = phi ptr [ %.pre, %._crit_edge ], [ %13, %11 ]
  %31 = add nsw i32 %29, 1
  store i32 %31, ptr %30, align 4, !tbaa !45
  br label %32

32:                                               ; preds = %.thread, %27, %28, %3
  %.0 = phi i32 [ 0, %28 ], [ 0, %3 ], [ %24, %27 ], [ -1, %.thread ]
  ret i32 %.0
}